target datalayout = "e-m:e-p270:32:32-p271:32:32-p272:64:64-i64:64-i128:128-f80:128-n8:16:32:64-S128"
target triple = "x86_64-pc-linux-gnu"

%struct._zend_compiler_globals = type { %struct._zend_stack, ptr, ptr, i32, ptr, ptr, ptr, ptr, i8, i8, i8, i8, i8, %struct._zend_llist, ptr, i8, i8, i8, i8, ptr, i32, i32, %struct._zend_oparray_context, %struct._zend_file_context, ptr, %struct._zend_array, ptr, i64, i8, i8, i8, ptr, ptr, %struct._zend_stack, ptr, i32, ptr, ptr, i64, i64, ptr, ptr, ptr, ptr, i32, %struct._zend_stack }
%struct._zend_llist = type { ptr, ptr, i64, i64, ptr, i8, ptr }
%struct._zend_oparray_context = type { i32, i32, i32, i32, i32, i32, i32, ptr, ptr, i8 }
%struct._zend_file_context = type { %struct._zend_declarables, ptr, i8, i8, ptr, ptr, ptr, %struct._zend_array }
%struct._zend_declarables = type { i64 }
%struct._zend_array = type { %struct._zend_refcounted_h, %union.anon.0, i32, %union.anon.1, i32, i32, i32, i32, i64, ptr }
%struct._zend_refcounted_h = type { i32, %union.anon }
%union.anon = type { i32 }
%union.anon.0 = type { i32 }
%union.anon.1 = type { ptr }
%struct._zend_stack = type { i32, i32, i32, ptr }
%struct._zval_struct = type { %union._zend_value, %union.anon.3, %union.anon.6 }
%union._zend_value = type { i64 }
%union.anon.3 = type { i32 }
%union.anon.6 = type { i32 }
%struct._zend_op_array = type { i8, [3 x i8], i32, ptr, ptr, ptr, i32, i32, ptr, ptr, ptr, ptr, i32, i32, i32, i32, ptr, ptr, ptr, ptr, ptr, i32, i32, ptr, ptr, ptr, i32, i32, i32, i32, ptr, ptr, [6 x ptr] }
%struct._zend_string = type { %struct._zend_refcounted_h, i64, i64, [1 x i8] }
%struct.anon.4 = type { i8, i8, %union.anon.5 }
%union.anon.5 = type { i16 }

@compiler_globals = global %struct._zend_compiler_globals zeroinitializer, align 8
@zend_new_interned_string = external global ptr, align 8

; Function Attrs: nounwind uwtable
define hidden ptr @zval_make_interned_string(ptr noundef %0) #0 {
  %2 = alloca i32, align 4
  %3 = alloca ptr, align 8
  store ptr %0, ptr %3, align 8
  %4 = load ptr, ptr @zend_new_interned_string, align 8
  %5 = load ptr, ptr %3, align 8
  %6 = getelementptr inbounds %struct._zval_struct, ptr %5, i32 0, i32 0
  %7 = load ptr, ptr %6, align 8
  %8 = call ptr %4(ptr noundef %7)
  %9 = load ptr, ptr %3, align 8
  %10 = getelementptr inbounds %struct._zval_struct, ptr %9, i32 0, i32 0
  store ptr %8, ptr %10, align 8
  %11 = load ptr, ptr %3, align 8
  %12 = getelementptr inbounds %struct._zval_struct, ptr %11, i32 0, i32 0
  %13 = load ptr, ptr %12, align 8
  %14 = getelementptr inbounds %struct._zend_string, ptr %13, i32 0, i32 0
  %15 = getelementptr inbounds %struct._zend_refcounted_h, ptr %14, i32 0, i32 1
  %16 = load i32, ptr %15, align 4
  store i32 %16, ptr %2, align 4
  %17 = load i32, ptr %2, align 4
  %18 = and i32 %17, 1008
  %19 = and i32 %18, 64
  %20 = icmp ne i32 %19, 0
  br i1 %20, label %21, label %25

21:                                               ; preds = %1
  %22 = load ptr, ptr %3, align 8
  %23 = getelementptr inbounds %struct._zval_struct, ptr %22, i32 0, i32 1
  %24 = getelementptr inbounds %struct.anon.4, ptr %23, i32 0, i32 1
  store i8 0, ptr %24, align 1
  br label %25

25:                                               ; preds = %21, %1
  %26 = load ptr, ptr %3, align 8
  %27 = getelementptr inbounds %struct._zval_struct, ptr %26, i32 0, i32 0
  %28 = load ptr, ptr %27, align 8
  ret ptr %28
}

; Function Attrs: nounwind uwtable
define internal void @zend_insert_literal(ptr noundef %0, ptr noundef %1, i32 noundef %2) #0 {
  %4 = alloca ptr, align 8
  %5 = alloca ptr, align 8
  %6 = alloca ptr, align 8
  %7 = alloca i32, align 4
  %8 = alloca ptr, align 8
  %9 = alloca ptr, align 8
  %10 = alloca ptr, align 8
  %11 = alloca ptr, align 8
  %12 = alloca i32, align 4
  store ptr %0, ptr %5, align 8
  store ptr %1, ptr %6, align 8
  store i32 %2, ptr %7, align 4
  %13 = load ptr, ptr %5, align 8
  %14 = getelementptr inbounds %struct._zend_op_array, ptr %13, i32 0, i32 30
  %15 = load ptr, ptr %14, align 8
  %16 = load i32, ptr %7, align 4
  %17 = sext i32 %16 to i64
  %18 = getelementptr inbounds %struct._zval_struct, ptr %15, i64 %17
  store ptr %18, ptr %8, align 8
  %19 = load ptr, ptr %6, align 8
  store ptr %19, ptr %4, align 8
  %20 = load ptr, ptr %4, align 8
  %21 = getelementptr inbounds %struct._zval_struct, ptr %20, i32 0, i32 1
  %22 = load i8, ptr %21, align 8
  %23 = zext i8 %22 to i32
  %24 = icmp eq i32 %23, 6
  br i1 %24, label %25, label %28

25:                                               ; preds = %3
  %26 = load ptr, ptr %6, align 8
  %27 = call ptr @zval_make_interned_string(ptr noundef %26)
  br label %28

28:                                               ; preds = %25, %3
  br label %29

29:                                               ; preds = %28
  %30 = load ptr, ptr %8, align 8
  store ptr %30, ptr %9, align 8
  %31 = load ptr, ptr %6, align 8
  store ptr %31, ptr %10, align 8
  %32 = load ptr, ptr %10, align 8
  %33 = getelementptr inbounds %struct._zval_struct, ptr %32, i32 0, i32 0
  %34 = load ptr, ptr %33, align 8
  store ptr %34, ptr %11, align 8
  %35 = load ptr, ptr %10, align 8
  %36 = getelementptr inbounds %struct._zval_struct, ptr %35, i32 0, i32 1
  %37 = load i32, ptr %36, align 8
  store i32 %37, ptr %12, align 4
  br label %38

38:                                               ; preds = %29
  %39 = load ptr, ptr %11, align 8
  %40 = load ptr, ptr %9, align 8
  %41 = getelementptr inbounds %struct._zval_struct, ptr %40, i32 0, i32 0
  store ptr %39, ptr %41, align 8
  %42 = load i32, ptr %12, align 4
  %43 = load ptr, ptr %9, align 8
  %44 = getelementptr inbounds %struct._zval_struct, ptr %43, i32 0, i32 1
  store i32 %42, ptr %44, align 8
  br label %45

45:                                               ; preds = %38
  br label %46

46:                                               ; preds = %45
  %47 = load ptr, ptr %8, align 8
  %48 = getelementptr inbounds %struct._zval_struct, ptr %47, i32 0, i32 2
  store i32 0, ptr %48, align 4
  ret void
}

; Function Attrs: nounwind uwtable
define internal i32 @zend_add_literal(ptr noundef %0) #0 {
  %2 = alloca ptr, align 8
  %3 = alloca ptr, align 8
  %4 = alloca i32, align 4
  store ptr %0, ptr %2, align 8
  %5 = load ptr, ptr getelementptr inbounds (%struct._zend_compiler_globals, ptr @compiler_globals, i32 0, i32 4), align 8
  store ptr %5, ptr %3, align 8
  %6 = load ptr, ptr %3, align 8
  %7 = getelementptr inbounds %struct._zend_op_array, ptr %6, i32 0, i32 28
  %8 = load i32, ptr %7, align 8
  store i32 %8, ptr %4, align 4
  %9 = load ptr, ptr %3, align 8
  %10 = getelementptr inbounds %struct._zend_op_array, ptr %9, i32 0, i32 28
  %11 = load i32, ptr %10, align 8
  %12 = add nsw i32 %11, 1
  store i32 %12, ptr %10, align 8
  %13 = load i32, ptr %4, align 4
  %14 = load i32, ptr getelementptr inbounds (%struct._zend_compiler_globals, ptr @compiler_globals, i32 0, i32 22, i32 2), align 8
  %15 = icmp sge i32 %13, %14
  br i1 %15, label %16, label %34

16:                                               ; preds = %1
  br label %17

17:                                               ; preds = %21, %16
  %18 = load i32, ptr %4, align 4
  %19 = load i32, ptr getelementptr inbounds (%struct._zend_compiler_globals, ptr @compiler_globals, i32 0, i32 22, i32 2), align 8
  %20 = icmp sge i32 %18, %19
  br i1 %20, label %21, label %24

21:                                               ; preds = %17
  %22 = load i32, ptr getelementptr inbounds (%struct._zend_compiler_globals, ptr @compiler_globals, i32 0, i32 22, i32 2), align 8
  %23 = add nsw i32 %22, 16
  store i32 %23, ptr getelementptr inbounds (%struct._zend_compiler_globals, ptr @compiler_globals, i32 0, i32 22, i32 2), align 8
  br label %17

24:                                               ; preds = %17
  %25 = load ptr, ptr %3, align 8
  %26 = getelementptr inbounds %struct._zend_op_array, ptr %25, i32 0, i32 30
  %27 = load ptr, ptr %26, align 8
  %28 = load i32, ptr getelementptr inbounds (%struct._zend_compiler_globals, ptr @compiler_globals, i32 0, i32 22, i32 2), align 8
  %29 = sext i32 %28 to i64
  %30 = mul i64 %29, 16
  %31 = call ptr @_erealloc(ptr noundef %27, i64 noundef %30) #19
  %32 = load ptr, ptr %3, align 8
  %33 = getelementptr inbounds %struct._zend_op_array, ptr %32, i32 0, i32 30
  store ptr %31, ptr %33, align 8
  br label %34

34:                                               ; preds = %24, %1
  %35 = load ptr, ptr %3, align 8
  %36 = load ptr, ptr %2, align 8
  %37 = load i32, ptr %4, align 4
  call void @zend_insert_literal(ptr noundef %35, ptr noundef %36, i32 noundef %37)
  %38 = load i32, ptr %4, align 4
  ret i32 %38
}

; Function Attrs: nounwind uwtable
define internal i32 @zend_add_literal_string(ptr noundef %0) #0 {
  %2 = alloca i32, align 4
  %3 = alloca ptr, align 8
  %4 = alloca i32, align 4
  %5 = alloca %struct._zval_struct, align 8
  %6 = alloca ptr, align 8
  %7 = alloca ptr, align 8
  store ptr %0, ptr %3, align 8
  br label %8

8:                                                ; preds = %1
  store ptr %5, ptr %6, align 8
  %9 = load ptr, ptr %3, align 8
  %10 = load ptr, ptr %9, align 8
  store ptr %10, ptr %7, align 8
  %11 = load ptr, ptr %7, align 8
  %12 = load ptr, ptr %6, align 8
  %13 = getelementptr inbounds %struct._zval_struct, ptr %12, i32 0, i32 0
  store ptr %11, ptr %13, align 8
  %14 = load ptr, ptr %7, align 8
  %15 = getelementptr inbounds %struct._zend_string, ptr %14, i32 0, i32 0
  %16 = getelementptr inbounds %struct._zend_refcounted_h, ptr %15, i32 0, i32 1
  %17 = load i32, ptr %16, align 4
  store i32 %17, ptr %2, align 4
  %18 = load i32, ptr %2, align 4
  %19 = and i32 %18, 1008
  %20 = and i32 %19, 64
  %21 = icmp ne i32 %20, 0
  %22 = select i1 %21, i32 6, i32 262
  %23 = load ptr, ptr %6, align 8
  %24 = getelementptr inbounds %struct._zval_struct, ptr %23, i32 0, i32 1
  store i32 %22, ptr %24, align 8
  br label %25

25:                                               ; preds = %8
  %26 = call i32 @zend_add_literal(ptr noundef %5)
  store i32 %26, ptr %4, align 4
  %27 = getelementptr inbounds %struct._zval_struct, ptr %5, i32 0, i32 0
  %28 = load ptr, ptr %27, align 8
  %29 = load ptr, ptr %3, align 8
  store ptr %28, ptr %29, align 8
  %30 = load i32, ptr %4, align 4
  ret i32 %30
}

; Function Attrs: nounwind uwtable
define internal i32 @zend_add_func_name_literal(ptr noundef %0) #0 {
  %2 = alloca ptr, align 8
  %3 = alloca ptr, align 8
  %4 = alloca i32, align 4
  %5 = alloca ptr, align 8
  store ptr %0, ptr %3, align 8
  %6 = call i32 @zend_add_literal_string(ptr noundef %3)
  store i32 %6, ptr %4, align 4
  %7 = load ptr, ptr %3, align 8
  store ptr %7, ptr %2, align 8
  %8 = load ptr, ptr %2, align 8
  %9 = call ptr @zend_string_tolower_ex(ptr noundef %8, i1 noundef zeroext false) #15
  store ptr %9, ptr %5, align 8
  %10 = call i32 @zend_add_literal_string(ptr noundef %5)
  %11 = load i32, ptr %4, align 4
  ret i32 %11
}