; Function Attrs: nounwind uwtable
define internal fastcc i32 @zend_add_func_name_literal(ptr noundef %0) unnamed_addr #0 {
  %2 = getelementptr inbounds i8, ptr %0, i64 4
  %3 = load i32, ptr %2, align 4
  %4 = load ptr, ptr getelementptr inbounds (%struct._zend_compiler_globals, ptr @compiler_globals, i64 0, i32 4), align 8
  %5 = getelementptr inbounds i8, ptr %4, i64 168
  %6 = load i32, ptr %5, align 8
  %7 = add nsw i32 %6, 1
  store i32 %7, ptr %5, align 8
  %8 = load i32, ptr getelementptr inbounds (%struct._zend_compiler_globals, ptr @compiler_globals, i64 0, i32 22, i32 2), align 8
  %.not.i.i = icmp slt i32 %6, %8
  br i1 %.not.i.i, label %._crit_edge13.i.i, label %.lr.ph.i.i

._crit_edge13.i.i:                                ; preds = %1
  %.phi.trans.insert.i.i = getelementptr i8, ptr %4, i64 176
  %.val.pre.i.i = load ptr, ptr %.phi.trans.insert.i.i, align 8
  br label %zend_add_literal_string.exit

.lr.ph.i.i:                                       ; preds = %1, %.lr.ph.i.i
  %9 = phi i32 [ %10, %.lr.ph.i.i ], [ %8, %1 ]
  %10 = add nsw i32 %9, 16
  %.not9.i.i = icmp slt i32 %6, %10
  br i1 %.not9.i.i, label %11, label %.lr.ph.i.i

11:                                               ; preds = %.lr.ph.i.i
  store i32 %10, ptr getelementptr inbounds (%struct._zend_compiler_globals, ptr @compiler_globals, i64 0, i32 22, i32 2), align 8
  %12 = getelementptr inbounds i8, ptr %4, i64 176
  %13 = load ptr, ptr %12, align 8
  %14 = sext i32 %10 to i64
  %15 = shl nsw i64 %14, 4
  %16 = tail call ptr @_erealloc(ptr noundef %13, i64 noundef %15) #34
  store ptr %16, ptr %12, align 8
  br label %zend_add_literal_string.exit

zend_add_literal_string.exit:                     ; preds = %._crit_edge13.i.i, %11
  %.val.i.i = phi ptr [ %.val.pre.i.i, %._crit_edge13.i.i ], [ %16, %11 ]
  %17 = load ptr, ptr @zend_new_interned_string, align 8
  %18 = tail call ptr %17(ptr noundef %0) #30
  %19 = getelementptr inbounds i8, ptr %18, i64 4
  %20 = load i32, ptr %19, align 4
  %21 = and i32 %20, 64
  %.not.i.i.i.i = icmp eq i32 %21, 0
  %22 = shl i32 %3, 2
  %.sroa.7.8.extract.trunc.i = and i32 %22, 256
  %23 = xor i32 %.sroa.7.8.extract.trunc.i, 262
  %24 = select i1 %.not.i.i.i.i, i32 %23, i32 6
  %25 = sext i32 %6 to i64
  %26 = getelementptr inbounds %struct._zval_struct, ptr %.val.i.i, i64 %25
  store ptr %18, ptr %26, align 8
  %27 = getelementptr inbounds i8, ptr %26, i64 8
  store i32 %24, ptr %27, align 8
  %28 = getelementptr inbounds i8, ptr %26, i64 12
  store i32 0, ptr %28, align 4
  %29 = tail call ptr @zend_string_tolower_ex(ptr noundef %18, i1 noundef zeroext false) #30
  %30 = getelementptr inbounds i8, ptr %29, i64 4
  %31 = load i32, ptr %30, align 4
  %32 = load ptr, ptr getelementptr inbounds (%struct._zend_compiler_globals, ptr @compiler_globals, i64 0, i32 4), align 8
  %33 = getelementptr inbounds i8, ptr %32, i64 168
  %34 = load i32, ptr %33, align 8
  %35 = add nsw i32 %34, 1
  store i32 %35, ptr %33, align 8
  %36 = load i32, ptr getelementptr inbounds (%struct._zend_compiler_globals, ptr @compiler_globals, i64 0, i32 22, i32 2), align 8
  %.not.i.i1 = icmp slt i32 %34, %36
  br i1 %.not.i.i1, label %._crit_edge13.i.i7, label %.lr.ph.i.i2

._crit_edge13.i.i7:                               ; preds = %zend_add_literal_string.exit
  %.phi.trans.insert.i.i8 = getelementptr i8, ptr %32, i64 176
  %.val.pre.i.i9 = load ptr, ptr %.phi.trans.insert.i.i8, align 8
  br label %zend_add_literal_string.exit10

.lr.ph.i.i2:                                      ; preds = %zend_add_literal_string.exit, %.lr.ph.i.i2
  %37 = phi i32 [ %38, %.lr.ph.i.i2 ], [ %36, %zend_add_literal_string.exit ]
  %38 = add nsw i32 %37, 16
  %.not9.i.i3 = icmp slt i32 %34, %38
  br i1 %.not9.i.i3, label %39, label %.lr.ph.i.i2

39:                                               ; preds = %.lr.ph.i.i2
  store i32 %38, ptr getelementptr inbounds (%struct._zend_compiler_globals, ptr @compiler_globals, i64 0, i32 22, i32 2), align 8
  %40 = getelementptr inbounds i8, ptr %32, i64 176
  %41 = load ptr, ptr %40, align 8
  %42 = sext i32 %38 to i64
  %43 = shl nsw i64 %42, 4
  %44 = tail call ptr @_erealloc(ptr noundef %41, i64 noundef %43) #34
  store ptr %44, ptr %40, align 8
  br label %zend_add_literal_string.exit10

zend_add_literal_string.exit10:                   ; preds = %._crit_edge13.i.i7, %39
  %.val.i.i4 = phi ptr [ %.val.pre.i.i9, %._crit_edge13.i.i7 ], [ %44, %39 ]
  %45 = load ptr, ptr @zend_new_interned_string, align 8
  %46 = tail call ptr %45(ptr noundef %29) #30
  %47 = getelementptr inbounds i8, ptr %46, i64 4
  %48 = load i32, ptr %47, align 4
  %49 = and i32 %48, 64
  %.not.i.i.i.i5 = icmp eq i32 %49, 0
  %50 = shl i32 %31, 2
  %.sroa.7.8.extract.trunc.i6 = and i32 %50, 256
  %51 = xor i32 %.sroa.7.8.extract.trunc.i6, 262
  %52 = select i1 %.not.i.i.i.i5, i32 %51, i32 6
  %53 = sext i32 %34 to i64
  %54 = getelementptr inbounds %struct._zval_struct, ptr %.val.i.i4, i64 %53
  store ptr %46, ptr %54, align 8
  %55 = getelementptr inbounds i8, ptr %54, i64 8
  store i32 %52, ptr %55, align 8
  %56 = getelementptr inbounds i8, ptr %54, i64 12
  store i32 0, ptr %56, align 4
  ret i32 %6
}